target datalayout = "e-m:e-p270:32:32-p271:32:32-p272:64:64-i64:64-i128:128-f80:128-n8:16:32:64-S128"
target triple = "x86_64-pc-linux-gnu"

%"struct.icu_77::RBBISetTableEl" = type { ptr, ptr }

; Function Attrs: mustprogress uwtable
define internal void @_ZL20RBBISetTable_deleterPv(ptr noundef %0) #0 {
  %2 = alloca ptr, align 8
  %3 = alloca ptr, align 8
  store ptr %0, ptr %2, align 8, !tbaa !64
  call void @llvm.lifetime.start.p0(i64 8, ptr %3) #12
  %4 = load ptr, ptr %2, align 8, !tbaa !64
  store ptr %4, ptr %3, align 8, !tbaa !65
  %5 = load ptr, ptr %3, align 8, !tbaa !65
  %6 = getelementptr inbounds nuw %"struct.icu_77::RBBISetTableEl", ptr %5, i32 0, i32 0
  %7 = load ptr, ptr %6, align 8, !tbaa !67
  %8 = icmp eq ptr %7, null
  br i1 %8, label %13, label %9

9:                                                ; preds = %1
  %10 = load ptr, ptr %7, align 8, !tbaa !10
  %11 = getelementptr inbounds ptr, ptr %10, i64 1
  %12 = load ptr, ptr %11, align 8
  call void %12(ptr noundef nonnull align 8 dereferenceable(64) %7) #12
  br label %13

13:                                               ; preds = %9, %1
  %14 = load ptr, ptr %3, align 8, !tbaa !65
  call void @uprv_free_77(ptr noundef %14)
  call void @llvm.lifetime.end.p0(i64 8, ptr %3) #12
  ret void
}