; Function Attrs: mustprogress uwtable
define internal void @_ZL20RBBISetTable_deleterPv(ptr noundef %0) #0 {
  %2 = load ptr, ptr %0, align 8, !tbaa !54
  %3 = icmp eq ptr %2, null
  br i1 %3, label %8, label %4

4:                                                ; preds = %1
  %5 = load ptr, ptr %2, align 8, !tbaa !3
  %6 = getelementptr inbounds nuw i8, ptr %5, i64 8
  %7 = load ptr, ptr %6, align 8
  tail call void %7(ptr noundef nonnull align 8 dereferenceable(64) %2) #13
  br label %8

8:                                                ; preds = %4, %1
  tail call void @uprv_free_77(ptr noundef nonnull %0)
  ret void
}